; Function Attrs: mustprogress nofree norecurse nosync nounwind willreturn memory(readwrite, inaccessiblemem: none) uwtable
define internal void @_ZNK5faiss8IndexIVF24range_search_preassignedElPKffPKlS2_PNS_17RangeSearchResultEbPKNS_19SearchParametersIVFEPNS_13IndexIVFStatsE.omp_outlined.omp.reduction.reduction_func(ptr noundef readonly captures(none) %0, ptr noundef readonly captures(none) %1) #25 {
  %3 = load ptr, ptr %1, align 8
  %4 = load ptr, ptr %0, align 8
  %5 = getelementptr inbounds nuw i8, ptr %1, i64 8
  %6 = load ptr, ptr %5, align 8
  %7 = getelementptr inbounds nuw i8, ptr %0, i64 8
  %8 = load ptr, ptr %7, align 8
  %9 = load i64, ptr %4, align 8, !tbaa !19
  %10 = load i64, ptr %3, align 8, !tbaa !19
  %11 = add i64 %10, %9
  store i64 %11, ptr %4, align 8, !tbaa !19
  %12 = load i64, ptr %8, align 8, !tbaa !19
  %13 = load i64, ptr %6, align 8, !tbaa !19
  %14 = add i64 %13, %12
  store i64 %14, ptr %8, align 8, !tbaa !19
  ret void
}